; Function Attrs: mustprogress nofree norecurse nosync nounwind willreturn memory(argmem: write) uwtable
define hidden void @_ZN5zxing11ResultPointC2Eii(ptr noundef nonnull writeonly align 8 captures(none) dereferenceable(20) initializes((0, 20)) %0, i32 noundef %1, i32 noundef %2) unnamed_addr #0 align 2 {
  %4 = getelementptr inbounds nuw i8, ptr %0, i64 8
  store i32 0, ptr %4, align 8, !tbaa !3
  store ptr getelementptr inbounds nuw inrange(-16, 48) (i8, ptr @_ZTVN5zxing11ResultPointE, i64 16), ptr %0, align 8, !tbaa !8
  %5 = getelementptr inbounds nuw i8, ptr %0, i64 12
  %6 = sitofp i32 %1 to float
  store float %6, ptr %5, align 4, !tbaa !10
  %7 = getelementptr inbounds nuw i8, ptr %0, i64 16
  %8 = sitofp i32 %2 to float
  store float %8, ptr %7, align 8, !tbaa !13
  ret void
}